target datalayout = "e-m:e-p270:32:32-p271:32:32-p272:64:64-i64:64-i128:128-f80:128-n8:16:32:64-S128"
target triple = "x86_64-pc-linux-gnu"

%"class.Imf_3_4::TimeCode" = type { i32, i32 }

@_ZTIN7Iex_3_46ArgExcE = external constant ptr
@.str.2 = private unnamed_addr constant [66 x i8] c"Cannot set seconds field in time code. New value is out of range.\00", align 1

; Function Attrs: mustprogress nounwind uwtable
define internal void @_ZN7Imf_3_412_GLOBAL__N_111setBitFieldERjiij(ptr noundef nonnull align 4 dereferenceable(4) %0, i32 noundef %1, i32 noundef %2, i32 noundef %3) #0 {
  %5 = alloca ptr, align 8
  %6 = alloca i32, align 4
  %7 = alloca i32, align 4
  %8 = alloca i32, align 4
  %9 = alloca i32, align 4
  %10 = alloca i32, align 4
  store ptr %0, ptr %5, align 8, !tbaa !19
  store i32 %1, ptr %6, align 4, !tbaa !12
  store i32 %2, ptr %7, align 4, !tbaa !12
  store i32 %3, ptr %8, align 4, !tbaa !12
  call void @llvm.lifetime.start.p0(i64 4, ptr %9) #5
  %11 = load i32, ptr %6, align 4, !tbaa !12
  store i32 %11, ptr %9, align 4, !tbaa !12
  call void @llvm.lifetime.start.p0(i64 4, ptr %10) #5
  %12 = load i32, ptr %7, align 4, !tbaa !12
  %13 = load i32, ptr %6, align 4, !tbaa !12
  %14 = sub nsw i32 %12, %13
  %15 = add nsw i32 %14, 1
  %16 = shl i32 -1, %15
  %17 = xor i32 %16, -1
  %18 = load i32, ptr %6, align 4, !tbaa !12
  %19 = shl i32 %17, %18
  store i32 %19, ptr %10, align 4, !tbaa !12
  %20 = load ptr, ptr %5, align 8, !tbaa !19
  %21 = load i32, ptr %20, align 4, !tbaa !12
  %22 = load i32, ptr %10, align 4, !tbaa !12
  %23 = xor i32 %22, -1
  %24 = and i32 %21, %23
  %25 = load i32, ptr %8, align 4, !tbaa !12
  %26 = load i32, ptr %9, align 4, !tbaa !12
  %27 = shl i32 %25, %26
  %28 = load i32, ptr %10, align 4, !tbaa !12
  %29 = and i32 %27, %28
  %30 = or i32 %24, %29
  %31 = load ptr, ptr %5, align 8, !tbaa !19
  store i32 %30, ptr %31, align 4, !tbaa !12
  call void @llvm.lifetime.end.p0(i64 4, ptr %10) #5
  call void @llvm.lifetime.end.p0(i64 4, ptr %9) #5
  ret void
}

; Function Attrs: mustprogress nounwind uwtable
define internal noundef i32 @_ZN7Imf_3_412_GLOBAL__N_111binaryToBcdEi(i32 noundef %0) #0 {
  %2 = alloca i32, align 4
  %3 = alloca i32, align 4
  %4 = alloca i32, align 4
  store i32 %0, ptr %2, align 4, !tbaa !12
  call void @llvm.lifetime.start.p0(i64 4, ptr %3) #5
  %5 = load i32, ptr %2, align 4, !tbaa !12
  %6 = srem i32 %5, 10
  store i32 %6, ptr %3, align 4, !tbaa !12
  call void @llvm.lifetime.start.p0(i64 4, ptr %4) #5
  %7 = load i32, ptr %2, align 4, !tbaa !12
  %8 = sdiv i32 %7, 10
  %9 = srem i32 %8, 10
  store i32 %9, ptr %4, align 4, !tbaa !12
  %10 = load i32, ptr %3, align 4, !tbaa !12
  %11 = load i32, ptr %4, align 4, !tbaa !12
  %12 = shl i32 %11, 4
  %13 = or i32 %10, %12
  call void @llvm.lifetime.end.p0(i64 4, ptr %4) #5
  call void @llvm.lifetime.end.p0(i64 4, ptr %3) #5
  ret i32 %13
}

; Function Attrs: mustprogress uwtable
define void @_ZN7Imf_3_48TimeCode10setSecondsEi(ptr noundef nonnull align 4 dereferenceable(8) %0, i32 noundef %1) #1 align 2 personality ptr @__gxx_personality_v0 {
  %3 = alloca ptr, align 8
  %4 = alloca i32, align 4
  %5 = alloca ptr, align 8
  %6 = alloca i32, align 4
  store ptr %0, ptr %3, align 8, !tbaa !3
  store i32 %1, ptr %4, align 4, !tbaa !12
  %7 = load ptr, ptr %3, align 8
  %8 = load i32, ptr %4, align 4, !tbaa !12
  %9 = icmp slt i32 %8, 0
  br i1 %9, label %13, label %10

10:                                               ; preds = %2
  %11 = load i32, ptr %4, align 4, !tbaa !12
  %12 = icmp sgt i32 %11, 59
  br i1 %12, label %13, label %20

13:                                               ; preds = %10, %2
  %14 = call ptr @__cxa_allocate_exception(i64 72) #5
  invoke void @_ZN7Iex_3_46ArgExcC1EPKc(ptr noundef nonnull align 8 dereferenceable(72) %14, ptr noundef @.str.2)
          to label %15 unwind label %16

15:                                               ; preds = %13
  call void @__cxa_throw(ptr %14, ptr @_ZTIN7Iex_3_46ArgExcE, ptr @_ZN7Iex_3_46ArgExcD1Ev) #6
  unreachable

16:                                               ; preds = %13
  %17 = landingpad { ptr, i32 }
          cleanup
  %18 = extractvalue { ptr, i32 } %17, 0
  store ptr %18, ptr %5, align 8
  %19 = extractvalue { ptr, i32 } %17, 1
  store i32 %19, ptr %6, align 4
  call void @__cxa_free_exception(ptr %14) #5
  br label %24

20:                                               ; preds = %10
  %21 = getelementptr inbounds nuw %"class.Imf_3_4::TimeCode", ptr %7, i32 0, i32 0
  %22 = load i32, ptr %4, align 4, !tbaa !12
  %23 = call noundef i32 @_ZN7Imf_3_412_GLOBAL__N_111binaryToBcdEi(i32 noundef %22)
  call void @_ZN7Imf_3_412_GLOBAL__N_111setBitFieldERjiij(ptr noundef nonnull align 4 dereferenceable(4) %21, i32 noundef 8, i32 noundef 14, i32 noundef %23)
  ret void

24:                                               ; preds = %16
  %25 = load ptr, ptr %5, align 8
  %26 = load i32, ptr %6, align 4
  %27 = insertvalue { ptr, i32 } poison, ptr %25, 0
  %28 = insertvalue { ptr, i32 } %27, i32 %26, 1
  resume { ptr, i32 } %28
}